target datalayout = "e-m:e-p270:32:32-p271:32:32-p272:64:64-i64:64-i128:128-f80:128-n8:16:32:64-S128"
target triple = "x86_64-pc-linux-gnu"

%"struct.pkpy::StrName" = type { i16 }
%"struct.pkpy::FastLocals" = type { ptr, ptr }
%"struct.pkpy::CodeObject" = type { %"class.std::shared_ptr", %"struct.pkpy::Str", %"class.std::vector", %"class.std::vector.0", %"class.std::vector.5", %"class.pkpy::small_vector_2", %"class.pkpy::small_vector_2.10", %"struct.pkpy::NameDictImpl", %"class.std::vector.12", %"struct.pkpy::NameDictImpl", %"class.std::vector.17", i32, i32 }
%"class.std::shared_ptr" = type { %"class.std::__shared_ptr" }
%"class.std::__shared_ptr" = type { ptr, %"class.std::__shared_count" }
%"class.std::__shared_count" = type { ptr }
%"struct.pkpy::Str" = type { i32, i8, ptr, [16 x i8] }
%"class.std::vector" = type { %"struct.std::_Vector_base" }
%"struct.std::_Vector_base" = type { %"struct.std::_Vector_base<pkpy::Bytecode, std::allocator<pkpy::Bytecode>>::_Vector_impl" }
%"struct.std::_Vector_base<pkpy::Bytecode, std::allocator<pkpy::Bytecode>>::_Vector_impl" = type { %"struct.std::_Vector_base<pkpy::Bytecode, std::allocator<pkpy::Bytecode>>::_Vector_impl_data" }
%"struct.std::_Vector_base<pkpy::Bytecode, std::allocator<pkpy::Bytecode>>::_Vector_impl_data" = type { ptr, ptr, ptr }
%"class.std::vector.0" = type { %"struct.std::_Vector_base.1" }
%"struct.std::_Vector_base.1" = type { %"struct.std::_Vector_base<int, std::allocator<int>>::_Vector_impl" }
%"struct.std::_Vector_base<int, std::allocator<int>>::_Vector_impl" = type { %"struct.std::_Vector_base<int, std::allocator<int>>::_Vector_impl_data" }
%"struct.std::_Vector_base<int, std::allocator<int>>::_Vector_impl_data" = type { ptr, ptr, ptr }
%"class.std::vector.5" = type { %"struct.std::_Vector_base.6" }
%"struct.std::_Vector_base.6" = type { %"struct.std::_Vector_base<pkpy::CodeObject::LineInfo, std::allocator<pkpy::CodeObject::LineInfo>>::_Vector_impl" }
%"struct.std::_Vector_base<pkpy::CodeObject::LineInfo, std::allocator<pkpy::CodeObject::LineInfo>>::_Vector_impl" = type { %"struct.std::_Vector_base<pkpy::CodeObject::LineInfo, std::allocator<pkpy::CodeObject::LineInfo>>::_Vector_impl_data" }
%"struct.std::_Vector_base<pkpy::CodeObject::LineInfo, std::allocator<pkpy::CodeObject::LineInfo>>::_Vector_impl_data" = type { ptr, ptr, ptr }
%"class.pkpy::small_vector_2" = type { %"class.pkpy::small_vector" }
%"class.pkpy::small_vector" = type { [64 x i8], ptr, ptr, ptr }
%"class.pkpy::small_vector_2.10" = type { %"class.pkpy::small_vector.11" }
%"class.pkpy::small_vector.11" = type { [16 x i8], ptr, ptr, ptr }
%"class.std::vector.12" = type { %"struct.std::_Vector_base.13" }
%"struct.std::_Vector_base.13" = type { %"struct.std::_Vector_base<pkpy::CodeBlock, std::allocator<pkpy::CodeBlock>>::_Vector_impl" }
%"struct.std::_Vector_base<pkpy::CodeBlock, std::allocator<pkpy::CodeBlock>>::_Vector_impl" = type { %"struct.std::_Vector_base<pkpy::CodeBlock, std::allocator<pkpy::CodeBlock>>::_Vector_impl_data" }
%"struct.std::_Vector_base<pkpy::CodeBlock, std::allocator<pkpy::CodeBlock>>::_Vector_impl_data" = type { ptr, ptr, ptr }
%"struct.pkpy::NameDictImpl" = type { %union.anon }
%union.anon = type <{ %"struct.pkpy::LargeNameDict", [32 x i8] }>
%"struct.pkpy::LargeNameDict" = type { i8, float, i16, i16, i16, i16, ptr }
%"class.std::vector.17" = type { %"struct.std::_Vector_base.18" }
%"struct.std::_Vector_base.18" = type { %"struct.std::_Vector_base<std::shared_ptr<pkpy::FuncDecl>, std::allocator<std::shared_ptr<pkpy::FuncDecl>>>::_Vector_impl" }
%"struct.std::_Vector_base<std::shared_ptr<pkpy::FuncDecl>, std::allocator<std::shared_ptr<pkpy::FuncDecl>>>::_Vector_impl" = type { %"struct.std::_Vector_base<std::shared_ptr<pkpy::FuncDecl>, std::allocator<std::shared_ptr<pkpy::FuncDecl>>>::_Vector_impl_data" }
%"struct.std::_Vector_base<std::shared_ptr<pkpy::FuncDecl>, std::allocator<std::shared_ptr<pkpy::FuncDecl>>>::_Vector_impl_data" = type { ptr, ptr, ptr }
%"struct.pkpy::SmallNameDict" = type { i8, i16, [8 x %"struct.pkpy::StrName"], [8 x i32] }
%"struct.pkpy::NameDictItem" = type { %"struct.pkpy::StrName", i32 }

; Function Attrs: mustprogress nounwind uwtable
define linkonce_odr noundef zeroext i1 @_ZNK4pkpy7StrName5emptyEv(ptr noundef nonnull align 2 dereferenceable(2) %0) #6 comdat align 2 {
  %2 = alloca ptr, align 8
  store ptr %0, ptr %2, align 8
  %3 = load ptr, ptr %2, align 8
  %4 = getelementptr inbounds %"struct.pkpy::StrName", ptr %3, i32 0, i32 0
  %5 = load i16, ptr %4, align 2
  %6 = zext i16 %5 to i32
  %7 = icmp eq i32 %6, 0
  ret i1 %7
}

; Function Attrs: mustprogress nounwind uwtable
define linkonce_odr noundef i32 @_ZN4pkpy21default_invalid_valueIiEET_v() #6 comdat {
  ret i32 -1
}

; Function Attrs: mustprogress nounwind uwtable
define linkonce_odr noundef zeroext i1 @_ZNK4pkpy7StrNameeqERKS0_(ptr noundef nonnull align 2 dereferenceable(2) %0, ptr noundef nonnull align 2 dereferenceable(2) %1) #6 comdat align 2 {
  %3 = alloca ptr, align 8
  %4 = alloca ptr, align 8
  store ptr %0, ptr %3, align 8
  store ptr %1, ptr %4, align 8
  %5 = load ptr, ptr %3, align 8
  %6 = getelementptr inbounds %"struct.pkpy::StrName", ptr %5, i32 0, i32 0
  %7 = load i16, ptr %6, align 2
  %8 = zext i16 %7 to i32
  %9 = load ptr, ptr %4, align 8
  %10 = getelementptr inbounds %"struct.pkpy::StrName", ptr %9, i32 0, i32 0
  %11 = load i16, ptr %10, align 2
  %12 = zext i16 %11 to i32
  %13 = icmp eq i32 %8, %12
  ret i1 %13
}

; Function Attrs: mustprogress uwtable
define linkonce_odr noundef i32 @_ZNK4pkpy13LargeNameDictIiE7try_getENS_7StrNameE(ptr noundef nonnull align 8 dereferenceable(24) %0, i16 %1) #4 comdat align 2 {
  %3 = alloca i32, align 4
  %4 = alloca %"struct.pkpy::StrName", align 2
  %5 = alloca ptr, align 8
  %6 = alloca i8, align 1
  %7 = alloca i16, align 2
  %8 = getelementptr inbounds %"struct.pkpy::StrName", ptr %4, i32 0, i32 0
  store i16 %1, ptr %8, align 2
  store ptr %0, ptr %5, align 8
  %9 = load ptr, ptr %5, align 8
  store i8 0, ptr %6, align 1
  %10 = getelementptr inbounds %"struct.pkpy::StrName", ptr %4, i32 0, i32 0
  %11 = load i16, ptr %10, align 2
  %12 = zext i16 %11 to i32
  %13 = getelementptr inbounds %"struct.pkpy::LargeNameDict", ptr %9, i32 0, i32 5
  %14 = load i16, ptr %13, align 2
  %15 = zext i16 %14 to i32
  %16 = and i32 %12, %15
  %17 = trunc i32 %16 to i16
  store i16 %17, ptr %7, align 2
  br label %18

18:                                               ; preds = %36, %2
  %19 = getelementptr inbounds %"struct.pkpy::LargeNameDict", ptr %9, i32 0, i32 6
  %20 = load ptr, ptr %19, align 8
  %21 = load i16, ptr %7, align 2
  %22 = zext i16 %21 to i64
  %23 = getelementptr inbounds %"struct.pkpy::NameDictItem", ptr %20, i64 %22
  %24 = getelementptr inbounds %"struct.pkpy::NameDictItem", ptr %23, i32 0, i32 0
  %25 = call noundef zeroext i1 @_ZNK4pkpy7StrName5emptyEv(ptr noundef nonnull align 2 dereferenceable(2) %24)
  %26 = xor i1 %25, true
  br i1 %26, label %27, label %45

27:                                               ; preds = %18
  %28 = getelementptr inbounds %"struct.pkpy::LargeNameDict", ptr %9, i32 0, i32 6
  %29 = load ptr, ptr %28, align 8
  %30 = load i16, ptr %7, align 2
  %31 = zext i16 %30 to i64
  %32 = getelementptr inbounds %"struct.pkpy::NameDictItem", ptr %29, i64 %31
  %33 = getelementptr inbounds %"struct.pkpy::NameDictItem", ptr %32, i32 0, i32 0
  %34 = call noundef zeroext i1 @_ZNK4pkpy7StrNameeqERKS0_(ptr noundef nonnull align 2 dereferenceable(2) %33, ptr noundef nonnull align 2 dereferenceable(2) %4) #3
  br i1 %34, label %35, label %36

35:                                               ; preds = %27
  store i8 1, ptr %6, align 1
  br label %45

36:                                               ; preds = %27
  %37 = load i16, ptr %7, align 2
  %38 = zext i16 %37 to i32
  %39 = add nsw i32 %38, 1
  %40 = getelementptr inbounds %"struct.pkpy::LargeNameDict", ptr %9, i32 0, i32 5
  %41 = load i16, ptr %40, align 2
  %42 = zext i16 %41 to i32
  %43 = and i32 %39, %42
  %44 = trunc i32 %43 to i16
  store i16 %44, ptr %7, align 2
  br label %18, !llvm.loop !9

45:                                               ; preds = %35, %18
  %46 = load i8, ptr %6, align 1
  %47 = trunc i8 %46 to i1
  br i1 %47, label %50, label %48

48:                                               ; preds = %45
  %49 = call noundef i32 @_ZN4pkpy21default_invalid_valueIiEET_v()
  store i32 %49, ptr %3, align 4
  br label %58

50:                                               ; preds = %45
  %51 = getelementptr inbounds %"struct.pkpy::LargeNameDict", ptr %9, i32 0, i32 6
  %52 = load ptr, ptr %51, align 8
  %53 = load i16, ptr %7, align 2
  %54 = zext i16 %53 to i64
  %55 = getelementptr inbounds %"struct.pkpy::NameDictItem", ptr %52, i64 %54
  %56 = getelementptr inbounds %"struct.pkpy::NameDictItem", ptr %55, i32 0, i32 1
  %57 = load i32, ptr %56, align 4
  store i32 %57, ptr %3, align 4
  br label %58

58:                                               ; preds = %50, %48
  %59 = load i32, ptr %3, align 4
  ret i32 %59
}

; Function Attrs: mustprogress uwtable
define linkonce_odr noundef i32 @_ZNK4pkpy13SmallNameDictIiE7try_getENS_7StrNameE(ptr noundef nonnull align 4 dereferenceable(52) %0, i16 %1) #4 comdat align 2 {
  %3 = alloca i32, align 4
  %4 = alloca %"struct.pkpy::StrName", align 2
  %5 = alloca ptr, align 8
  %6 = alloca i32, align 4
  %7 = getelementptr inbounds %"struct.pkpy::StrName", ptr %4, i32 0, i32 0
  store i16 %1, ptr %7, align 2
  store ptr %0, ptr %5, align 8
  %8 = load ptr, ptr %5, align 8
  store i32 0, ptr %6, align 4
  br label %9

9:                                                ; preds = %25, %2
  %10 = load i32, ptr %6, align 4
  %11 = icmp slt i32 %10, 8
  br i1 %11, label %12, label %28

12:                                               ; preds = %9
  %13 = getelementptr inbounds %"struct.pkpy::SmallNameDict", ptr %8, i32 0, i32 2
  %14 = load i32, ptr %6, align 4
  %15 = sext i32 %14 to i64
  %16 = getelementptr inbounds [8 x %"struct.pkpy::StrName"], ptr %13, i64 0, i64 %15
  %17 = call noundef zeroext i1 @_ZNK4pkpy7StrNameeqERKS0_(ptr noundef nonnull align 2 dereferenceable(2) %16, ptr noundef nonnull align 2 dereferenceable(2) %4) #3
  br i1 %17, label %18, label %24

18:                                               ; preds = %12
  %19 = getelementptr inbounds %"struct.pkpy::SmallNameDict", ptr %8, i32 0, i32 3
  %20 = load i32, ptr %6, align 4
  %21 = sext i32 %20 to i64
  %22 = getelementptr inbounds [8 x i32], ptr %19, i64 0, i64 %21
  %23 = load i32, ptr %22, align 4
  store i32 %23, ptr %3, align 4
  br label %30

24:                                               ; preds = %12
  br label %25

25:                                               ; preds = %24
  %26 = load i32, ptr %6, align 4
  %27 = add nsw i32 %26, 1
  store i32 %27, ptr %6, align 4
  br label %9, !llvm.loop !8

28:                                               ; preds = %9
  %29 = call noundef i32 @_ZN4pkpy21default_invalid_valueIiEET_v()
  store i32 %29, ptr %3, align 4
  br label %30

30:                                               ; preds = %28, %18
  %31 = load i32, ptr %3, align 4
  ret i32 %31
}

; Function Attrs: mustprogress nounwind uwtable
define linkonce_odr noundef zeroext i1 @_ZNK4pkpy12NameDictImplIiE8is_smallEv(ptr noundef nonnull align 8 dereferenceable(56) %0) #6 comdat align 2 {
  %2 = alloca ptr, align 8
  %3 = alloca ptr, align 8
  store ptr %0, ptr %2, align 8
  %4 = load ptr, ptr %2, align 8
  store ptr %4, ptr %3, align 8
  %5 = load ptr, ptr %3, align 8
  %6 = load i8, ptr %5, align 1
  %7 = trunc i8 %6 to i1
  ret i1 %7
}

; Function Attrs: mustprogress uwtable
define linkonce_odr noundef i32 @_ZNK4pkpy12NameDictImplIiE7try_getENS_7StrNameE(ptr noundef nonnull align 8 dereferenceable(56) %0, i16 %1) #4 comdat align 2 {
  %3 = alloca %"struct.pkpy::StrName", align 2
  %4 = alloca ptr, align 8
  %5 = alloca %"struct.pkpy::StrName", align 2
  %6 = alloca %"struct.pkpy::StrName", align 2
  %7 = getelementptr inbounds %"struct.pkpy::StrName", ptr %3, i32 0, i32 0
  store i16 %1, ptr %7, align 2
  store ptr %0, ptr %4, align 8
  %8 = load ptr, ptr %4, align 8
  %9 = call noundef zeroext i1 @_ZNK4pkpy12NameDictImplIiE8is_smallEv(ptr noundef nonnull align 8 dereferenceable(56) %8)
  br i1 %9, label %10, label %15

10:                                               ; preds = %2
  %11 = getelementptr inbounds %"struct.pkpy::NameDictImpl", ptr %8, i32 0, i32 0
  call void @llvm.memcpy.p0.p0.i64(ptr align 2 %5, ptr align 2 %3, i64 2, i1 false)
  %12 = getelementptr inbounds %"struct.pkpy::StrName", ptr %5, i32 0, i32 0
  %13 = load i16, ptr %12, align 2
  %14 = call noundef i32 @_ZNK4pkpy13SmallNameDictIiE7try_getENS_7StrNameE(ptr noundef nonnull align 4 dereferenceable(52) %11, i16 %13)
  br label %20

15:                                               ; preds = %2
  %16 = getelementptr inbounds %"struct.pkpy::NameDictImpl", ptr %8, i32 0, i32 0
  call void @llvm.memcpy.p0.p0.i64(ptr align 2 %6, ptr align 2 %3, i64 2, i1 false)
  %17 = getelementptr inbounds %"struct.pkpy::StrName", ptr %6, i32 0, i32 0
  %18 = load i16, ptr %17, align 2
  %19 = call noundef i32 @_ZNK4pkpy13LargeNameDictIiE7try_getENS_7StrNameE(ptr noundef nonnull align 8 dereferenceable(24) %16, i16 %18)
  br label %20

20:                                               ; preds = %15, %10
  %21 = phi i32 [ %14, %10 ], [ %19, %15 ]
  ret i32 %21
}

; Function Attrs: mustprogress uwtable
define noundef ptr @_ZN4pkpy10FastLocals12try_get_nameENS_7StrNameE(ptr noundef nonnull align 8 dereferenceable(16) %0, i16 %1) #4 align 2 {
  %3 = alloca ptr, align 8
  %4 = alloca %"struct.pkpy::StrName", align 2
  %5 = alloca ptr, align 8
  %6 = alloca i32, align 4
  %7 = alloca %"struct.pkpy::StrName", align 2
  %8 = getelementptr inbounds %"struct.pkpy::StrName", ptr %4, i32 0, i32 0
  store i16 %1, ptr %8, align 2
  store ptr %0, ptr %5, align 8
  %9 = load ptr, ptr %5, align 8
  %10 = getelementptr inbounds %"struct.pkpy::FastLocals", ptr %9, i32 0, i32 0
  %11 = load ptr, ptr %10, align 8
  %12 = getelementptr inbounds %"struct.pkpy::CodeObject", ptr %11, i32 0, i32 7
  call void @llvm.memcpy.p0.p0.i64(ptr align 2 %7, ptr align 2 %4, i64 2, i1 false)
  %13 = getelementptr inbounds %"struct.pkpy::StrName", ptr %7, i32 0, i32 0
  %14 = load i16, ptr %13, align 2
  %15 = call noundef i32 @_ZNK4pkpy12NameDictImplIiE7try_getENS_7StrNameE(ptr noundef nonnull align 8 dereferenceable(56) %12, i16 %14)
  store i32 %15, ptr %6, align 4
  %16 = load i32, ptr %6, align 4
  %17 = icmp eq i32 %16, -1
  br i1 %17, label %18, label %19

18:                                               ; preds = %2
  store ptr null, ptr %3, align 8
  br label %25

19:                                               ; preds = %2
  %20 = getelementptr inbounds %"struct.pkpy::FastLocals", ptr %9, i32 0, i32 1
  %21 = load ptr, ptr %20, align 8
  %22 = load i32, ptr %6, align 4
  %23 = sext i32 %22 to i64
  %24 = getelementptr inbounds ptr, ptr %21, i64 %23
  store ptr %24, ptr %3, align 8
  br label %25

25:                                               ; preds = %19, %18
  %26 = load ptr, ptr %3, align 8
  ret ptr %26
}