; Function Attrs: mustprogress nofree norecurse nosync nounwind willreturn memory(read, inaccessiblemem: none) uwtable
define noundef ptr @_ZN4pkpy10FastLocals12try_get_nameENS_7StrNameE(ptr noundef nonnull readonly align 8 captures(none) dereferenceable(16) %0, i16 %1) local_unnamed_addr #3 align 2 {
  %3 = load ptr, ptr %0, align 8
  %4 = getelementptr inbounds nuw i8, ptr %3, i64 248
  %5 = load i8, ptr %4, align 1
  %6 = trunc i8 %5 to i1
  br i1 %6, label %7, label %17

7:                                                ; preds = %2
  %8 = getelementptr inbounds nuw i8, ptr %3, i64 252
  br label %10

9:                                                ; preds = %10
  %indvars.iv.next.i.i = add nuw nsw i64 %indvars.iv.i.i, 1
  %exitcond.not.i.i = icmp eq i64 %indvars.iv.next.i.i, 8
  br i1 %exitcond.not.i.i, label %_ZNK4pkpy12NameDictImplIiE7try_getENS_7StrNameE.exit.thread, label %10, !llvm.loop !4

10:                                               ; preds = %9, %7
  %indvars.iv.i.i = phi i64 [ 0, %7 ], [ %indvars.iv.next.i.i, %9 ]
  %11 = getelementptr inbounds nuw [8 x %"struct.pkpy::StrName"], ptr %8, i64 0, i64 %indvars.iv.i.i
  %12 = load i16, ptr %11, align 2
  %13 = icmp eq i16 %12, %1
  br i1 %13, label %14, label %9

14:                                               ; preds = %10
  %15 = getelementptr inbounds nuw i8, ptr %3, i64 268
  %16 = getelementptr inbounds nuw [8 x i32], ptr %15, i64 0, i64 %indvars.iv.i.i
  br label %_ZNK4pkpy12NameDictImplIiE7try_getENS_7StrNameE.exit

17:                                               ; preds = %2
  %18 = getelementptr inbounds nuw i8, ptr %3, i64 262
  %19 = load i16, ptr %18, align 2
  %20 = getelementptr inbounds nuw i8, ptr %3, i64 264
  %21 = load ptr, ptr %20, align 8
  %.011.i.i = and i16 %19, %1
  %22 = zext i16 %.011.i.i to i64
  %23 = getelementptr inbounds nuw %"struct.pkpy::NameDictItem", ptr %21, i64 %22
  %24 = load i16, ptr %23, align 2
  %25 = icmp eq i16 %24, 0
  br i1 %25, label %_ZNK4pkpy12NameDictImplIiE7try_getENS_7StrNameE.exit.thread, label %.lr.ph.i.preheader.i

.lr.ph.i.preheader.i:                             ; preds = %17
  %26 = icmp eq i16 %24, %1
  br i1 %26, label %.lr.ph.i._crit_edge.i, label %.lr.ph.i

.lr.ph.i:                                         ; preds = %.lr.ph.i.preheader.i, %.lr.ph.i.i
  %.012.i7.i = phi i16 [ %.0.i.i, %.lr.ph.i.i ], [ %.011.i.i, %.lr.ph.i.preheader.i ]
  %27 = add i16 %.012.i7.i, 1
  %.0.i.i = and i16 %27, %19
  %28 = zext i16 %.0.i.i to i64
  %29 = getelementptr inbounds nuw %"struct.pkpy::NameDictItem", ptr %21, i64 %28
  %30 = load i16, ptr %29, align 2
  %31 = icmp eq i16 %30, 0
  br i1 %31, label %_ZNK4pkpy12NameDictImplIiE7try_getENS_7StrNameE.exit.thread, label %.lr.ph.i.i, !llvm.loop !6

.lr.ph.i.i:                                       ; preds = %.lr.ph.i
  %32 = icmp eq i16 %30, %1
  br i1 %32, label %.lr.ph.i._crit_edge.i, label %.lr.ph.i, !llvm.loop !6

.lr.ph.i._crit_edge.i:                            ; preds = %.lr.ph.i.i, %.lr.ph.i.preheader.i
  %.lcssa.i = phi i64 [ %22, %.lr.ph.i.preheader.i ], [ %28, %.lr.ph.i.i ]
  %33 = getelementptr inbounds nuw %"struct.pkpy::NameDictItem", ptr %21, i64 %.lcssa.i, i32 1
  br label %_ZNK4pkpy12NameDictImplIiE7try_getENS_7StrNameE.exit

_ZNK4pkpy12NameDictImplIiE7try_getENS_7StrNameE.exit: ; preds = %14, %.lr.ph.i._crit_edge.i
  %.in = phi ptr [ %16, %14 ], [ %33, %.lr.ph.i._crit_edge.i ]
  %34 = load i32, ptr %.in, align 4
  %.fr = freeze i32 %34
  %35 = icmp eq i32 %.fr, -1
  %36 = getelementptr inbounds nuw i8, ptr %0, i64 8
  %37 = load ptr, ptr %36, align 8
  %38 = sext i32 %.fr to i64
  %39 = getelementptr inbounds ptr, ptr %37, i64 %38
  br i1 %35, label %_ZNK4pkpy12NameDictImplIiE7try_getENS_7StrNameE.exit.thread, label %40

_ZNK4pkpy12NameDictImplIiE7try_getENS_7StrNameE.exit.thread: ; preds = %.lr.ph.i, %9, %17, %_ZNK4pkpy12NameDictImplIiE7try_getENS_7StrNameE.exit
  br label %40

40:                                               ; preds = %_ZNK4pkpy12NameDictImplIiE7try_getENS_7StrNameE.exit, %_ZNK4pkpy12NameDictImplIiE7try_getENS_7StrNameE.exit.thread
  %41 = phi ptr [ null, %_ZNK4pkpy12NameDictImplIiE7try_getENS_7StrNameE.exit.thread ], [ %39, %_ZNK4pkpy12NameDictImplIiE7try_getENS_7StrNameE.exit ]
  ret ptr %41
}